target datalayout = "e-m:e-p270:32:32-p271:32:32-p272:64:64-i64:64-i128:128-f80:128-n8:16:32:64-S128"
target triple = "x86_64-pc-linux-gnu"

%struct._lv_arc_t = type { %struct._lv_obj_t, i32, float, float, float, float, i32, i32, i32, i8, i32, i32, float, i16 }
%struct._lv_obj_t = type { ptr, ptr, ptr, ptr, ptr, %struct.lv_area_t, i32, i16, i16 }
%struct.lv_area_t = type { i32, i32, i32, i32 }

; Function Attrs: nounwind uwtable
define void @lv_arc_set_angles(ptr noundef %0, float noundef %1, float noundef %2) #0 {
  %4 = alloca ptr, align 8
  %5 = alloca float, align 4
  %6 = alloca float, align 4
  store ptr %0, ptr %4, align 8, !tbaa !8
  store float %1, ptr %5, align 4, !tbaa !39
  store float %2, ptr %6, align 4, !tbaa !39
  %7 = load ptr, ptr %4, align 8, !tbaa !8
  %8 = load float, ptr %6, align 4, !tbaa !39
  call void @lv_arc_set_end_angle(ptr noundef %7, float noundef %8)
  %9 = load ptr, ptr %4, align 8, !tbaa !8
  %10 = load float, ptr %5, align 4, !tbaa !39
  call void @lv_arc_set_start_angle(ptr noundef %9, float noundef %10)
  ret void
}

; Function Attrs: nounwind uwtable
define internal void @value_update(ptr noundef %0) #0 {
  %2 = alloca ptr, align 8
  %3 = alloca ptr, align 8
  %4 = alloca i32, align 4
  %5 = alloca float, align 4
  %6 = alloca float, align 4
  %7 = alloca i32, align 4
  %8 = alloca i32, align 4
  store ptr %0, ptr %2, align 8, !tbaa !8
  br label %9

9:                                                ; preds = %1
  %10 = load ptr, ptr %2, align 8, !tbaa !8
  %11 = icmp ne ptr %10, null
  br i1 %11, label %16, label %12

12:                                               ; preds = %9
  br label %13

13:                                               ; preds = %12
  br label %14

14:                                               ; preds = %13
  br label %15

15:                                               ; preds = %14, %15
  br label %15

16:                                               ; preds = %9
  br label %17

17:                                               ; preds = %16
  call void @llvm.lifetime.start.p0(i64 8, ptr %3) #5
  %18 = load ptr, ptr %2, align 8, !tbaa !8
  store ptr %18, ptr %3, align 8, !tbaa !10
  %19 = load ptr, ptr %3, align 8, !tbaa !10
  %20 = getelementptr inbounds nuw %struct._lv_arc_t, ptr %19, i32 0, i32 6
  %21 = load i32, ptr %20, align 4, !tbaa !25
  %22 = icmp eq i32 %21, -32768
  br i1 %22, label %23, label %24

23:                                               ; preds = %17
  store i32 1, ptr %4, align 4
  br label %162

24:                                               ; preds = %17
  call void @llvm.lifetime.start.p0(i64 4, ptr %5) #5
  call void @llvm.lifetime.start.p0(i64 4, ptr %6) #5
  %25 = load ptr, ptr %3, align 8, !tbaa !10
  %26 = getelementptr inbounds nuw %struct._lv_arc_t, ptr %25, i32 0, i32 5
  %27 = load float, ptr %26, align 8, !tbaa !22
  store float %27, ptr %6, align 4, !tbaa !39
  call void @llvm.lifetime.start.p0(i64 4, ptr %7) #5
  %28 = load ptr, ptr %3, align 8, !tbaa !10
  %29 = getelementptr inbounds nuw %struct._lv_arc_t, ptr %28, i32 0, i32 5
  %30 = load float, ptr %29, align 8, !tbaa !22
  %31 = load ptr, ptr %3, align 8, !tbaa !10
  %32 = getelementptr inbounds nuw %struct._lv_arc_t, ptr %31, i32 0, i32 4
  %33 = load float, ptr %32, align 4, !tbaa !21
  %34 = fcmp olt float %30, %33
  br i1 %34, label %35, label %40

35:                                               ; preds = %24
  %36 = load ptr, ptr %3, align 8, !tbaa !10
  %37 = getelementptr inbounds nuw %struct._lv_arc_t, ptr %36, i32 0, i32 5
  %38 = load float, ptr %37, align 8, !tbaa !22
  %39 = fadd float %38, 3.600000e+02
  store float %39, ptr %6, align 4, !tbaa !39
  br label %40

40:                                               ; preds = %35, %24
  call void @llvm.lifetime.start.p0(i64 4, ptr %8) #5
  %41 = load ptr, ptr %3, align 8, !tbaa !10
  %42 = getelementptr inbounds nuw %struct._lv_arc_t, ptr %41, i32 0, i32 9
  %43 = load i8, ptr %42, align 8
  %44 = lshr i8 %43, 1
  %45 = and i8 %44, 3
  %46 = zext i8 %45 to i32
  switch i32 %46, label %152 [
    i32 1, label %47
    i32 2, label %106
    i32 0, label %129
  ]

47:                                               ; preds = %40
  %48 = load ptr, ptr %3, align 8, !tbaa !10
  %49 = getelementptr inbounds nuw %struct._lv_arc_t, ptr %48, i32 0, i32 4
  %50 = load float, ptr %49, align 4, !tbaa !21
  %51 = load float, ptr %6, align 4, !tbaa !39
  %52 = fadd float %50, %51
  %53 = fdiv float %52, 2.000000e+00
  store float %53, ptr %5, align 4, !tbaa !39
  %54 = load ptr, ptr %3, align 8, !tbaa !10
  %55 = getelementptr inbounds nuw %struct._lv_arc_t, ptr %54, i32 0, i32 7
  %56 = load i32, ptr %55, align 8, !tbaa !26
  %57 = load ptr, ptr %3, align 8, !tbaa !10
  %58 = getelementptr inbounds nuw %struct._lv_arc_t, ptr %57, i32 0, i32 8
  %59 = load i32, ptr %58, align 4, !tbaa !27
  %60 = add nsw i32 %56, %59
  %61 = sdiv i32 %60, 2
  store i32 %61, ptr %7, align 4, !tbaa !33
  %62 = load ptr, ptr %3, align 8, !tbaa !10
  %63 = getelementptr inbounds nuw %struct._lv_arc_t, ptr %62, i32 0, i32 6
  %64 = load i32, ptr %63, align 4, !tbaa !25
  %65 = load i32, ptr %7, align 4, !tbaa !33
  %66 = icmp slt i32 %64, %65
  br i1 %66, label %67, label %87

67:                                               ; preds = %47
  %68 = load ptr, ptr %3, align 8, !tbaa !10
  %69 = getelementptr inbounds nuw %struct._lv_arc_t, ptr %68, i32 0, i32 6
  %70 = load i32, ptr %69, align 4, !tbaa !25
  %71 = load ptr, ptr %3, align 8, !tbaa !10
  %72 = getelementptr inbounds nuw %struct._lv_arc_t, ptr %71, i32 0, i32 7
  %73 = load i32, ptr %72, align 8, !tbaa !26
  %74 = load i32, ptr %7, align 4, !tbaa !33
  %75 = load ptr, ptr %3, align 8, !tbaa !10
  %76 = getelementptr inbounds nuw %struct._lv_arc_t, ptr %75, i32 0, i32 4
  %77 = load float, ptr %76, align 4, !tbaa !21
  %78 = fptosi float %77 to i32
  %79 = load float, ptr %5, align 4, !tbaa !39
  %80 = fptosi float %79 to i32
  %81 = call i32 @lv_map(i32 noundef %70, i32 noundef %73, i32 noundef %74, i32 noundef %78, i32 noundef %80)
  store i32 %81, ptr %8, align 4, !tbaa !33
  %82 = load ptr, ptr %2, align 8, !tbaa !8
  %83 = load i32, ptr %8, align 4, !tbaa !33
  %84 = sitofp i32 %83 to float
  call void @lv_arc_set_start_angle(ptr noundef %82, float noundef %84)
  %85 = load ptr, ptr %2, align 8, !tbaa !8
  %86 = load float, ptr %5, align 4, !tbaa !39
  call void @lv_arc_set_end_angle(ptr noundef %85, float noundef %86)
  br label %105

87:                                               ; preds = %47
  %88 = load ptr, ptr %3, align 8, !tbaa !10
  %89 = getelementptr inbounds nuw %struct._lv_arc_t, ptr %88, i32 0, i32 6
  %90 = load i32, ptr %89, align 4, !tbaa !25
  %91 = load i32, ptr %7, align 4, !tbaa !33
  %92 = load ptr, ptr %3, align 8, !tbaa !10
  %93 = getelementptr inbounds nuw %struct._lv_arc_t, ptr %92, i32 0, i32 8
  %94 = load i32, ptr %93, align 4, !tbaa !27
  %95 = load float, ptr %5, align 4, !tbaa !39
  %96 = fptosi float %95 to i32
  %97 = load float, ptr %6, align 4, !tbaa !39
  %98 = fptosi float %97 to i32
  %99 = call i32 @lv_map(i32 noundef %90, i32 noundef %91, i32 noundef %94, i32 noundef %96, i32 noundef %98)
  store i32 %99, ptr %8, align 4, !tbaa !33
  %100 = load ptr, ptr %2, align 8, !tbaa !8
  %101 = load float, ptr %5, align 4, !tbaa !39
  call void @lv_arc_set_start_angle(ptr noundef %100, float noundef %101)
  %102 = load ptr, ptr %2, align 8, !tbaa !8
  %103 = load i32, ptr %8, align 4, !tbaa !33
  %104 = sitofp i32 %103 to float
  call void @lv_arc_set_end_angle(ptr noundef %102, float noundef %104)
  br label %105

105:                                              ; preds = %87, %67
  br label %156

106:                                              ; preds = %40
  %107 = load ptr, ptr %3, align 8, !tbaa !10
  %108 = getelementptr inbounds nuw %struct._lv_arc_t, ptr %107, i32 0, i32 6
  %109 = load i32, ptr %108, align 4, !tbaa !25
  %110 = load ptr, ptr %3, align 8, !tbaa !10
  %111 = getelementptr inbounds nuw %struct._lv_arc_t, ptr %110, i32 0, i32 7
  %112 = load i32, ptr %111, align 8, !tbaa !26
  %113 = load ptr, ptr %3, align 8, !tbaa !10
  %114 = getelementptr inbounds nuw %struct._lv_arc_t, ptr %113, i32 0, i32 8
  %115 = load i32, ptr %114, align 4, !tbaa !27
  %116 = load float, ptr %6, align 4, !tbaa !39
  %117 = fptosi float %116 to i32
  %118 = load ptr, ptr %3, align 8, !tbaa !10
  %119 = getelementptr inbounds nuw %struct._lv_arc_t, ptr %118, i32 0, i32 4
  %120 = load float, ptr %119, align 4, !tbaa !21
  %121 = fptosi float %120 to i32
  %122 = call i32 @lv_map(i32 noundef %109, i32 noundef %112, i32 noundef %115, i32 noundef %117, i32 noundef %121)
  store i32 %122, ptr %8, align 4, !tbaa !33
  %123 = load ptr, ptr %2, align 8, !tbaa !8
  %124 = load i32, ptr %8, align 4, !tbaa !33
  %125 = sitofp i32 %124 to float
  %126 = load ptr, ptr %3, align 8, !tbaa !10
  %127 = getelementptr inbounds nuw %struct._lv_arc_t, ptr %126, i32 0, i32 5
  %128 = load float, ptr %127, align 8, !tbaa !22
  call void @lv_arc_set_angles(ptr noundef %123, float noundef %125, float noundef %128)
  br label %156

129:                                              ; preds = %40
  %130 = load ptr, ptr %3, align 8, !tbaa !10
  %131 = getelementptr inbounds nuw %struct._lv_arc_t, ptr %130, i32 0, i32 6
  %132 = load i32, ptr %131, align 4, !tbaa !25
  %133 = load ptr, ptr %3, align 8, !tbaa !10
  %134 = getelementptr inbounds nuw %struct._lv_arc_t, ptr %133, i32 0, i32 7
  %135 = load i32, ptr %134, align 8, !tbaa !26
  %136 = load ptr, ptr %3, align 8, !tbaa !10
  %137 = getelementptr inbounds nuw %struct._lv_arc_t, ptr %136, i32 0, i32 8
  %138 = load i32, ptr %137, align 4, !tbaa !27
  %139 = load ptr, ptr %3, align 8, !tbaa !10
  %140 = getelementptr inbounds nuw %struct._lv_arc_t, ptr %139, i32 0, i32 4
  %141 = load float, ptr %140, align 4, !tbaa !21
  %142 = fptosi float %141 to i32
  %143 = load float, ptr %6, align 4, !tbaa !39
  %144 = fptosi float %143 to i32
  %145 = call i32 @lv_map(i32 noundef %132, i32 noundef %135, i32 noundef %138, i32 noundef %142, i32 noundef %144)
  store i32 %145, ptr %8, align 4, !tbaa !33
  %146 = load ptr, ptr %2, align 8, !tbaa !8
  %147 = load ptr, ptr %3, align 8, !tbaa !10
  %148 = getelementptr inbounds nuw %struct._lv_arc_t, ptr %147, i32 0, i32 4
  %149 = load float, ptr %148, align 4, !tbaa !21
  %150 = load i32, ptr %8, align 4, !tbaa !33
  %151 = sitofp i32 %150 to float
  call void @lv_arc_set_angles(ptr noundef %146, float noundef %149, float noundef %151)
  br label %156

152:                                              ; preds = %40
  br label %153

153:                                              ; preds = %152
  br label %154

154:                                              ; preds = %153
  br label %155

155:                                              ; preds = %154
  store i32 1, ptr %4, align 4
  br label %161

156:                                              ; preds = %129, %106, %105
  %157 = load i32, ptr %8, align 4, !tbaa !33
  %158 = sitofp i32 %157 to float
  %159 = load ptr, ptr %3, align 8, !tbaa !10
  %160 = getelementptr inbounds nuw %struct._lv_arc_t, ptr %159, i32 0, i32 12
  store float %158, ptr %160, align 4, !tbaa !30
  store i32 0, ptr %4, align 4
  br label %161

161:                                              ; preds = %156, %155
  call void @llvm.lifetime.end.p0(i64 4, ptr %8) #5
  call void @llvm.lifetime.end.p0(i64 4, ptr %7) #5
  call void @llvm.lifetime.end.p0(i64 4, ptr %6) #5
  call void @llvm.lifetime.end.p0(i64 4, ptr %5) #5
  br label %162

162:                                              ; preds = %161, %23
  call void @llvm.lifetime.end.p0(i64 8, ptr %3) #5
  %163 = load i32, ptr %4, align 4
  switch i32 %163, label %165 [
    i32 0, label %164
    i32 1, label %164
  ]

164:                                              ; preds = %162, %162
  ret void

165:                                              ; preds = %162
  unreachable
}