; Function Attrs: nounwind uwtable
define internal fastcc void @value_update(ptr noundef nonnull %0) unnamed_addr #0 {
  %2 = getelementptr inbounds nuw i8, ptr %0, i64 84
  %3 = load i32, ptr %2, align 4, !tbaa !21
  %4 = icmp eq i32 %3, -32768
  br i1 %4, label %58, label %5

5:                                                ; preds = %1
  %6 = getelementptr inbounds nuw i8, ptr %0, i64 80
  %7 = load float, ptr %6, align 8, !tbaa !18
  %8 = getelementptr inbounds nuw i8, ptr %0, i64 76
  %9 = load float, ptr %8, align 4, !tbaa !17
  %10 = fcmp olt float %7, %9
  %11 = fadd float %7, 3.600000e+02
  %.049 = select i1 %10, float %11, float %7
  %12 = getelementptr inbounds nuw i8, ptr %0, i64 96
  %13 = load i8, ptr %12, align 8
  %14 = lshr i8 %13, 1
  %15 = and i8 %14, 3
  switch i8 %15, label %default.unreachable56 [
    i8 1, label %16
    i8 2, label %36
    i8 0, label %46
    i8 3, label %58
  ]

16:                                               ; preds = %5
  %17 = fadd float %9, %.049
  %18 = fmul float %17, 5.000000e-01
  %19 = getelementptr inbounds nuw i8, ptr %0, i64 88
  %20 = load i32, ptr %19, align 8, !tbaa !22
  %21 = getelementptr inbounds nuw i8, ptr %0, i64 92
  %22 = load i32, ptr %21, align 4, !tbaa !23
  %23 = add nsw i32 %22, %20
  %24 = sdiv i32 %23, 2
  %25 = icmp slt i32 %3, %24
  br i1 %25, label %26, label %31

26:                                               ; preds = %16
  %27 = fptosi float %9 to i32
  %28 = fptosi float %18 to i32
  %29 = tail call i32 @lv_map(i32 noundef %3, i32 noundef %20, i32 noundef %24, i32 noundef %27, i32 noundef %28) #7
  %30 = sitofp i32 %29 to float
  tail call void @lv_arc_set_start_angle(ptr noundef nonnull %0, float noundef %30)
  tail call void @lv_arc_set_end_angle(ptr noundef nonnull %0, float noundef %18)
  br label %56

31:                                               ; preds = %16
  %32 = fptosi float %18 to i32
  %33 = fptosi float %.049 to i32
  %34 = tail call i32 @lv_map(i32 noundef %3, i32 noundef %24, i32 noundef %22, i32 noundef %32, i32 noundef %33) #7
  tail call void @lv_arc_set_start_angle(ptr noundef nonnull %0, float noundef %18)
  %35 = sitofp i32 %34 to float
  tail call void @lv_arc_set_end_angle(ptr noundef nonnull %0, float noundef %35)
  br label %56

36:                                               ; preds = %5
  %37 = getelementptr inbounds nuw i8, ptr %0, i64 88
  %38 = load i32, ptr %37, align 8, !tbaa !22
  %39 = getelementptr inbounds nuw i8, ptr %0, i64 92
  %40 = load i32, ptr %39, align 4, !tbaa !23
  %41 = fptosi float %.049 to i32
  %42 = fptosi float %9 to i32
  %43 = tail call i32 @lv_map(i32 noundef %3, i32 noundef %38, i32 noundef %40, i32 noundef %41, i32 noundef %42) #7
  %44 = sitofp i32 %43 to float
  %45 = load float, ptr %6, align 8, !tbaa !18
  tail call void @lv_arc_set_end_angle(ptr noundef nonnull %0, float noundef %45)
  tail call void @lv_arc_set_start_angle(ptr noundef nonnull %0, float noundef %44)
  br label %56

46:                                               ; preds = %5
  %47 = getelementptr inbounds nuw i8, ptr %0, i64 88
  %48 = load i32, ptr %47, align 8, !tbaa !22
  %49 = getelementptr inbounds nuw i8, ptr %0, i64 92
  %50 = load i32, ptr %49, align 4, !tbaa !23
  %51 = fptosi float %9 to i32
  %52 = fptosi float %.049 to i32
  %53 = tail call i32 @lv_map(i32 noundef %3, i32 noundef %48, i32 noundef %50, i32 noundef %51, i32 noundef %52) #7
  %54 = load float, ptr %8, align 4, !tbaa !17
  %55 = sitofp i32 %53 to float
  tail call void @lv_arc_set_end_angle(ptr noundef nonnull %0, float noundef %55)
  tail call void @lv_arc_set_start_angle(ptr noundef nonnull %0, float noundef %54)
  br label %56

default.unreachable56:                            ; preds = %5
  unreachable

56:                                               ; preds = %26, %31, %46, %36
  %.pre-phi = phi float [ %30, %26 ], [ %35, %31 ], [ %55, %46 ], [ %44, %36 ]
  %57 = getelementptr inbounds nuw i8, ptr %0, i64 108
  store float %.pre-phi, ptr %57, align 4, !tbaa !26
  br label %58

58:                                               ; preds = %56, %5, %1
  ret void
}